target datalayout = "e-m:e-p270:32:32-p271:32:32-p272:64:64-i64:64-i128:128-f80:128-n8:16:32:64-S128"
target triple = "x86_64-pc-linux-gnu"

%struct._object = type { %union.anon, ptr }
%union.anon = type { i64 }
%struct._typeobject = type { %struct.PyVarObject, ptr, i64, i64, ptr, i64, ptr, ptr, ptr, ptr, ptr, ptr, ptr, ptr, ptr, ptr, ptr, ptr, ptr, i64, ptr, ptr, ptr, ptr, i64, ptr, ptr, ptr, ptr, ptr, ptr, ptr, ptr, ptr, i64, ptr, ptr, ptr, ptr, ptr, ptr, ptr, ptr, ptr, ptr, ptr, i32, ptr, ptr, i8, i16 }
%struct.PyVarObject = type { %struct._object, i64 }
%struct.PyListObject = type { %struct.PyVarObject, ptr, i64 }
%struct.anon = type { i32, i32 }

@.str.2 = private unnamed_addr constant [12 x i8] c"heappushpop\00", align 1
@.str.10 = private unnamed_addr constant [11 x i8] c"argument 1\00", align 1
@.str.11 = private unnamed_addr constant [5 x i8] c"list\00", align 1
@PyExc_IndexError = external global ptr, align 8
@.str.12 = private unnamed_addr constant [19 x i8] c"index out of range\00", align 1

; Function Attrs: alwaysinline nounwind uwtable
define internal i32 @_Py_IsImmortal(ptr noundef %0) #4 {
  %2 = alloca ptr, align 8
  store ptr %0, ptr %2, align 8, !tbaa !3
  %3 = load ptr, ptr %2, align 8, !tbaa !3
  %4 = getelementptr inbounds nuw %struct._object, ptr %3, i32 0, i32 0
  %5 = getelementptr inbounds nuw %struct.anon, ptr %4, i32 0, i32 0
  %6 = load i32, ptr %5, align 8, !tbaa !31
  %7 = icmp slt i32 %6, 0
  %8 = zext i1 %7 to i32
  ret i32 %8
}

; Function Attrs: inlinehint nounwind uwtable
define internal i64 @Py_SIZE(ptr noundef %0) #3 {
  %2 = alloca ptr, align 8
  store ptr %0, ptr %2, align 8, !tbaa !3
  %3 = load ptr, ptr %2, align 8, !tbaa !3
  %4 = getelementptr inbounds nuw %struct.PyVarObject, ptr %3, i32 0, i32 1
  %5 = load i64, ptr %4, align 8, !tbaa !32
  ret i64 %5
}

; Function Attrs: inlinehint nounwind uwtable
define internal void @PyList_SET_ITEM(ptr noundef %0, i64 noundef %1, ptr noundef %2) #3 {
  %4 = alloca ptr, align 8
  %5 = alloca i64, align 8
  %6 = alloca ptr, align 8
  %7 = alloca ptr, align 8
  store ptr %0, ptr %4, align 8, !tbaa !3
  store i64 %1, ptr %5, align 8, !tbaa !10
  store ptr %2, ptr %6, align 8, !tbaa !3
  call void @llvm.lifetime.start.p0(i64 8, ptr %7) #5
  %8 = load ptr, ptr %4, align 8, !tbaa !3
  store ptr %8, ptr %7, align 8, !tbaa !25
  %9 = load ptr, ptr %6, align 8, !tbaa !3
  %10 = load ptr, ptr %7, align 8, !tbaa !25
  %11 = getelementptr inbounds nuw %struct.PyListObject, ptr %10, i32 0, i32 1
  %12 = load ptr, ptr %11, align 8, !tbaa !26
  %13 = load i64, ptr %5, align 8, !tbaa !10
  %14 = getelementptr ptr, ptr %12, i64 %13
  store ptr %9, ptr %14, align 8, !tbaa !3
  call void @llvm.lifetime.end.p0(i64 8, ptr %7) #5
  ret void
}

; Function Attrs: alwaysinline nounwind uwtable
define internal void @Py_DECREF(ptr noundef %0) #4 {
  %2 = alloca ptr, align 8
  store ptr %0, ptr %2, align 8, !tbaa !3
  %3 = load ptr, ptr %2, align 8, !tbaa !3
  %4 = call i32 @_Py_IsImmortal(ptr noundef %3)
  %5 = icmp ne i32 %4, 0
  br i1 %5, label %6, label %7

6:                                                ; preds = %1
  br label %16

7:                                                ; preds = %1
  %8 = load ptr, ptr %2, align 8, !tbaa !3
  %9 = getelementptr inbounds nuw %struct._object, ptr %8, i32 0, i32 0
  %10 = getelementptr inbounds nuw %struct.anon, ptr %9, i32 0, i32 0
  %11 = load i32, ptr %10, align 8, !tbaa !31
  %12 = add i32 %11, -1
  store i32 %12, ptr %10, align 8, !tbaa !31
  %13 = icmp eq i32 %12, 0
  br i1 %13, label %14, label %16

14:                                               ; preds = %7
  %15 = load ptr, ptr %2, align 8, !tbaa !3
  call void @_Py_Dealloc(ptr noundef %15)
  br label %16

16:                                               ; preds = %6, %14, %7
  ret void
}

; Function Attrs: alwaysinline nounwind uwtable
define internal void @Py_INCREF(ptr noundef %0) #4 {
  %2 = alloca ptr, align 8
  %3 = alloca i32, align 4
  %4 = alloca i32, align 4
  store ptr %0, ptr %2, align 8, !tbaa !3
  call void @llvm.lifetime.start.p0(i64 4, ptr %3) #5
  %5 = load ptr, ptr %2, align 8, !tbaa !3
  %6 = getelementptr inbounds nuw %struct._object, ptr %5, i32 0, i32 0
  %7 = getelementptr inbounds nuw %struct.anon, ptr %6, i32 0, i32 0
  %8 = load i32, ptr %7, align 8, !tbaa !31
  store i32 %8, ptr %3, align 4, !tbaa !28
  %9 = load i32, ptr %3, align 4, !tbaa !28
  %10 = icmp slt i32 %9, 0
  br i1 %10, label %11, label %12

11:                                               ; preds = %1
  store i32 1, ptr %4, align 4
  br label %18

12:                                               ; preds = %1
  %13 = load i32, ptr %3, align 4, !tbaa !28
  %14 = add i32 %13, 1
  %15 = load ptr, ptr %2, align 8, !tbaa !3
  %16 = getelementptr inbounds nuw %struct._object, ptr %15, i32 0, i32 0
  %17 = getelementptr inbounds nuw %struct.anon, ptr %16, i32 0, i32 0
  store i32 %14, ptr %17, align 8, !tbaa !31
  store i32 0, ptr %4, align 4
  br label %18

18:                                               ; preds = %12, %11
  call void @llvm.lifetime.end.p0(i64 4, ptr %3) #5
  %19 = load i32, ptr %4, align 4
  switch i32 %19, label %21 [
    i32 0, label %20
    i32 1, label %20
  ]

20:                                               ; preds = %18, %18
  ret void

21:                                               ; preds = %18
  unreachable
}

; Function Attrs: inlinehint nounwind uwtable
define internal ptr @_Py_NewRef(ptr noundef %0) #3 {
  %2 = alloca ptr, align 8
  store ptr %0, ptr %2, align 8, !tbaa !3
  %3 = load ptr, ptr %2, align 8, !tbaa !3
  call void @Py_INCREF(ptr noundef %3)
  %4 = load ptr, ptr %2, align 8, !tbaa !3
  ret ptr %4
}

; Function Attrs: inlinehint nounwind uwtable
define internal i64 @PyList_GET_SIZE(ptr noundef %0) #3 {
  %2 = alloca ptr, align 8
  %3 = alloca ptr, align 8
  store ptr %0, ptr %2, align 8, !tbaa !3
  call void @llvm.lifetime.start.p0(i64 8, ptr %3) #5
  %4 = load ptr, ptr %2, align 8, !tbaa !3
  store ptr %4, ptr %3, align 8, !tbaa !25
  %5 = load ptr, ptr %3, align 8, !tbaa !25
  %6 = call i64 @Py_SIZE(ptr noundef %5)
  call void @llvm.lifetime.end.p0(i64 8, ptr %3) #5
  ret i64 %6
}

; Function Attrs: nounwind uwtable
define internal ptr @_heapq_heappushpop_impl(ptr noundef %0, ptr noundef %1, ptr noundef %2) #0 {
  %4 = alloca ptr, align 8
  %5 = alloca ptr, align 8
  %6 = alloca ptr, align 8
  %7 = alloca ptr, align 8
  %8 = alloca ptr, align 8
  %9 = alloca i32, align 4
  %10 = alloca i32, align 4
  %11 = alloca ptr, align 8
  store ptr %0, ptr %5, align 8, !tbaa !3
  store ptr %1, ptr %6, align 8, !tbaa !3
  store ptr %2, ptr %7, align 8, !tbaa !3
  call void @llvm.lifetime.start.p0(i64 8, ptr %8) #5
  call void @llvm.lifetime.start.p0(i64 4, ptr %9) #5
  %12 = load ptr, ptr %6, align 8, !tbaa !3
  %13 = call i64 @PyList_GET_SIZE(ptr noundef %12)
  %14 = icmp eq i64 %13, 0
  br i1 %14, label %15, label %18

15:                                               ; preds = %3
  %16 = load ptr, ptr %7, align 8, !tbaa !3
  %17 = call ptr @_Py_NewRef(ptr noundef %16)
  store ptr %17, ptr %4, align 8
  store i32 1, ptr %10, align 4
  br label %61

18:                                               ; preds = %3
  call void @llvm.lifetime.start.p0(i64 8, ptr %11) #5
  %19 = load ptr, ptr %6, align 8, !tbaa !3
  %20 = getelementptr inbounds nuw %struct.PyListObject, ptr %19, i32 0, i32 1
  %21 = load ptr, ptr %20, align 8, !tbaa !26
  %22 = getelementptr ptr, ptr %21, i64 0
  %23 = load ptr, ptr %22, align 8, !tbaa !3
  store ptr %23, ptr %11, align 8, !tbaa !3
  %24 = load ptr, ptr %11, align 8, !tbaa !3
  call void @Py_INCREF(ptr noundef %24)
  %25 = load ptr, ptr %11, align 8, !tbaa !3
  %26 = load ptr, ptr %7, align 8, !tbaa !3
  %27 = call i32 @PyObject_RichCompareBool(ptr noundef %25, ptr noundef %26, i32 noundef 0)
  store i32 %27, ptr %9, align 4, !tbaa !28
  %28 = load ptr, ptr %11, align 8, !tbaa !3
  call void @Py_DECREF(ptr noundef %28)
  %29 = load i32, ptr %9, align 4, !tbaa !28
  %30 = icmp slt i32 %29, 0
  br i1 %30, label %31, label %32

31:                                               ; preds = %18
  store ptr null, ptr %4, align 8
  store i32 1, ptr %10, align 4
  br label %60

32:                                               ; preds = %18
  %33 = load i32, ptr %9, align 4, !tbaa !28
  %34 = icmp eq i32 %33, 0
  br i1 %34, label %35, label %38

35:                                               ; preds = %32
  %36 = load ptr, ptr %7, align 8, !tbaa !3
  %37 = call ptr @_Py_NewRef(ptr noundef %36)
  store ptr %37, ptr %4, align 8
  store i32 1, ptr %10, align 4
  br label %60

38:                                               ; preds = %32
  %39 = load ptr, ptr %6, align 8, !tbaa !3
  %40 = call i64 @PyList_GET_SIZE(ptr noundef %39)
  %41 = icmp eq i64 %40, 0
  br i1 %41, label %42, label %44

42:                                               ; preds = %38
  %43 = load ptr, ptr @PyExc_IndexError, align 8, !tbaa !3
  call void @PyErr_SetString(ptr noundef %43, ptr noundef @.str.12)
  store ptr null, ptr %4, align 8
  store i32 1, ptr %10, align 4
  br label %60

44:                                               ; preds = %38
  %45 = load ptr, ptr %6, align 8, !tbaa !3
  %46 = getelementptr inbounds nuw %struct.PyListObject, ptr %45, i32 0, i32 1
  %47 = load ptr, ptr %46, align 8, !tbaa !26
  %48 = getelementptr ptr, ptr %47, i64 0
  %49 = load ptr, ptr %48, align 8, !tbaa !3
  store ptr %49, ptr %8, align 8, !tbaa !3
  %50 = load ptr, ptr %6, align 8, !tbaa !3
  %51 = load ptr, ptr %7, align 8, !tbaa !3
  %52 = call ptr @_Py_NewRef(ptr noundef %51)
  call void @PyList_SET_ITEM(ptr noundef %50, i64 noundef 0, ptr noundef %52)
  %53 = load ptr, ptr %6, align 8, !tbaa !3
  %54 = call i32 @siftup(ptr noundef %53, i64 noundef 0)
  %55 = icmp ne i32 %54, 0
  br i1 %55, label %56, label %58

56:                                               ; preds = %44
  %57 = load ptr, ptr %8, align 8, !tbaa !3
  call void @Py_DECREF(ptr noundef %57)
  store ptr null, ptr %4, align 8
  store i32 1, ptr %10, align 4
  br label %60

58:                                               ; preds = %44
  %59 = load ptr, ptr %8, align 8, !tbaa !3
  store ptr %59, ptr %4, align 8
  store i32 1, ptr %10, align 4
  br label %60

60:                                               ; preds = %58, %56, %42, %35, %31
  call void @llvm.lifetime.end.p0(i64 8, ptr %11) #5
  br label %61

61:                                               ; preds = %60, %15
  call void @llvm.lifetime.end.p0(i64 4, ptr %9) #5
  call void @llvm.lifetime.end.p0(i64 8, ptr %8) #5
  %62 = load ptr, ptr %4, align 8
  ret ptr %62
}

; Function Attrs: inlinehint nounwind uwtable
define internal i32 @PyType_HasFeature(ptr noundef %0, i64 noundef %1) #3 {
  %3 = alloca ptr, align 8
  %4 = alloca i64, align 8
  %5 = alloca i64, align 8
  store ptr %0, ptr %3, align 8, !tbaa !12
  store i64 %1, ptr %4, align 8, !tbaa !10
  call void @llvm.lifetime.start.p0(i64 8, ptr %5) #5
  %6 = load ptr, ptr %3, align 8, !tbaa !12
  %7 = getelementptr inbounds nuw %struct._typeobject, ptr %6, i32 0, i32 19
  %8 = load i64, ptr %7, align 8, !tbaa !14
  store i64 %8, ptr %5, align 8, !tbaa !10
  %9 = load i64, ptr %5, align 8, !tbaa !10
  %10 = load i64, ptr %4, align 8, !tbaa !10
  %11 = and i64 %9, %10
  %12 = icmp ne i64 %11, 0
  %13 = zext i1 %12 to i32
  call void @llvm.lifetime.end.p0(i64 8, ptr %5) #5
  ret i32 %13
}

; Function Attrs: inlinehint nounwind uwtable
define internal ptr @_Py_TYPE(ptr noundef %0) #3 {
  %2 = alloca ptr, align 8
  store ptr %0, ptr %2, align 8, !tbaa !3
  %3 = load ptr, ptr %2, align 8, !tbaa !3
  %4 = getelementptr inbounds nuw %struct._object, ptr %3, i32 0, i32 1
  %5 = load ptr, ptr %4, align 8, !tbaa !24
  ret ptr %5
}

; Function Attrs: nounwind uwtable
define internal ptr @_heapq_heappushpop(ptr noundef %0, ptr noundef %1, i64 noundef %2) #0 {
  %4 = alloca ptr, align 8
  %5 = alloca ptr, align 8
  %6 = alloca i64, align 8
  %7 = alloca ptr, align 8
  %8 = alloca ptr, align 8
  %9 = alloca ptr, align 8
  store ptr %0, ptr %4, align 8, !tbaa !3
  store ptr %1, ptr %5, align 8, !tbaa !8
  store i64 %2, ptr %6, align 8, !tbaa !10
  call void @llvm.lifetime.start.p0(i64 8, ptr %7) #5
  store ptr null, ptr %7, align 8, !tbaa !3
  call void @llvm.lifetime.start.p0(i64 8, ptr %8) #5
  call void @llvm.lifetime.start.p0(i64 8, ptr %9) #5
  %10 = load i64, ptr %6, align 8, !tbaa !10
  %11 = icmp sle i64 2, %10
  br i1 %11, label %12, label %15

12:                                               ; preds = %3
  %13 = load i64, ptr %6, align 8, !tbaa !10
  %14 = icmp sle i64 %13, 2
  br i1 %14, label %20, label %15

15:                                               ; preds = %12, %3
  %16 = load i64, ptr %6, align 8, !tbaa !10
  %17 = call i32 @_PyArg_CheckPositional(ptr noundef @.str.2, i64 noundef %16, i64 noundef 2, i64 noundef 2)
  %18 = icmp ne i32 %17, 0
  br i1 %18, label %20, label %19

19:                                               ; preds = %15
  br label %42

20:                                               ; preds = %15, %12
  %21 = load ptr, ptr %5, align 8, !tbaa !8
  %22 = getelementptr ptr, ptr %21, i64 0
  %23 = load ptr, ptr %22, align 8, !tbaa !3
  %24 = call ptr @_Py_TYPE(ptr noundef %23)
  %25 = call i32 @PyType_HasFeature(ptr noundef %24, i64 noundef 33554432)
  %26 = icmp ne i32 %25, 0
  br i1 %26, label %31, label %27

27:                                               ; preds = %20
  %28 = load ptr, ptr %5, align 8, !tbaa !8
  %29 = getelementptr ptr, ptr %28, i64 0
  %30 = load ptr, ptr %29, align 8, !tbaa !3
  call void @_PyArg_BadArgument(ptr noundef @.str.2, ptr noundef @.str.10, ptr noundef @.str.11, ptr noundef %30)
  br label %42

31:                                               ; preds = %20
  %32 = load ptr, ptr %5, align 8, !tbaa !8
  %33 = getelementptr ptr, ptr %32, i64 0
  %34 = load ptr, ptr %33, align 8, !tbaa !3
  store ptr %34, ptr %8, align 8, !tbaa !3
  %35 = load ptr, ptr %5, align 8, !tbaa !8
  %36 = getelementptr ptr, ptr %35, i64 1
  %37 = load ptr, ptr %36, align 8, !tbaa !3
  store ptr %37, ptr %9, align 8, !tbaa !3
  %38 = load ptr, ptr %4, align 8, !tbaa !3
  %39 = load ptr, ptr %8, align 8, !tbaa !3
  %40 = load ptr, ptr %9, align 8, !tbaa !3
  %41 = call ptr @_heapq_heappushpop_impl(ptr noundef %38, ptr noundef %39, ptr noundef %40)
  store ptr %41, ptr %7, align 8, !tbaa !3
  br label %42

42:                                               ; preds = %31, %27, %19
  %43 = load ptr, ptr %7, align 8, !tbaa !3
  call void @llvm.lifetime.end.p0(i64 8, ptr %9) #5
  call void @llvm.lifetime.end.p0(i64 8, ptr %8) #5
  call void @llvm.lifetime.end.p0(i64 8, ptr %7) #5
  ret ptr %43
}