; Function Attrs: nounwind uwtable
define internal ptr @_heapq_heappushpop(ptr readnone captures(none) %0, ptr noundef readonly captures(none) %1, i64 noundef %2) #0 {
  %or.cond = icmp eq i64 %2, 2
  br i1 %or.cond, label %6, label %4

4:                                                ; preds = %3
  %5 = tail call i32 @_PyArg_CheckPositional(ptr noundef nonnull @.str.2, i64 noundef %2, i64 noundef 2, i64 noundef 2) #2
  %.not = icmp eq i32 %5, 0
  br i1 %.not, label %_heapq_heappushpop_impl.exit, label %6

6:                                                ; preds = %3, %4
  %7 = load ptr, ptr %1, align 8, !tbaa !3
  %8 = getelementptr i8, ptr %7, i64 8
  %.val = load ptr, ptr %8, align 8, !tbaa !8
  %9 = getelementptr i8, ptr %.val, i64 168
  %.val12 = load i64, ptr %9, align 8, !tbaa !11
  %10 = and i64 %.val12, 33554432
  %.not11 = icmp eq i64 %10, 0
  br i1 %.not11, label %11, label %12

11:                                               ; preds = %6
  tail call void @_PyArg_BadArgument(ptr noundef nonnull @.str.2, ptr noundef nonnull @.str.10, ptr noundef nonnull @.str.11, ptr noundef nonnull %7) #2
  br label %_heapq_heappushpop_impl.exit

12:                                               ; preds = %6
  %13 = getelementptr i8, ptr %1, i64 8
  %14 = load ptr, ptr %13, align 8, !tbaa !3
  %15 = getelementptr i8, ptr %7, i64 16
  %.val21.i = load i64, ptr %15, align 8, !tbaa !21
  %16 = icmp eq i64 %.val21.i, 0
  br i1 %16, label %17, label %22

17:                                               ; preds = %12
  %18 = load i32, ptr %14, align 8, !tbaa !22
  %19 = icmp slt i32 %18, 0
  br i1 %19, label %_heapq_heappushpop_impl.exit, label %20

20:                                               ; preds = %17
  %21 = add nuw i32 %18, 1
  store i32 %21, ptr %14, align 8, !tbaa !22
  br label %_heapq_heappushpop_impl.exit

22:                                               ; preds = %12
  %23 = getelementptr inbounds nuw i8, ptr %7, i64 24
  %24 = load ptr, ptr %23, align 8, !tbaa !23
  %25 = load ptr, ptr %24, align 8, !tbaa !3
  %26 = load i32, ptr %25, align 8, !tbaa !22
  %27 = icmp slt i32 %26, 0
  br i1 %27, label %Py_INCREF.exit.i, label %28

28:                                               ; preds = %22
  %29 = add nuw i32 %26, 1
  store i32 %29, ptr %25, align 8, !tbaa !22
  br label %Py_INCREF.exit.i

Py_INCREF.exit.i:                                 ; preds = %28, %22
  %30 = tail call i32 @PyObject_RichCompareBool(ptr noundef nonnull %25, ptr noundef %14, i32 noundef 0) #2
  %31 = load i32, ptr %25, align 8, !tbaa !22
  %.not.i18.i = icmp sgt i32 %31, -1
  br i1 %.not.i18.i, label %32, label %Py_DECREF.exit19.i

32:                                               ; preds = %Py_INCREF.exit.i
  %33 = add nsw i32 %31, -1
  store i32 %33, ptr %25, align 8, !tbaa !22
  %34 = icmp eq i32 %33, 0
  br i1 %34, label %35, label %Py_DECREF.exit19.i

35:                                               ; preds = %32
  tail call void @_Py_Dealloc(ptr noundef nonnull %25) #2
  br label %Py_DECREF.exit19.i

Py_DECREF.exit19.i:                               ; preds = %35, %32, %Py_INCREF.exit.i
  %36 = icmp slt i32 %30, 0
  br i1 %36, label %_heapq_heappushpop_impl.exit, label %37

37:                                               ; preds = %Py_DECREF.exit19.i
  %38 = icmp eq i32 %30, 0
  br i1 %38, label %39, label %44

39:                                               ; preds = %37
  %40 = load i32, ptr %14, align 8, !tbaa !22
  %41 = icmp slt i32 %40, 0
  br i1 %41, label %_heapq_heappushpop_impl.exit, label %42

42:                                               ; preds = %39
  %43 = add nuw i32 %40, 1
  store i32 %43, ptr %14, align 8, !tbaa !22
  br label %_heapq_heappushpop_impl.exit

44:                                               ; preds = %37
  %.val.i = load i64, ptr %15, align 8, !tbaa !21
  %45 = icmp eq i64 %.val.i, 0
  br i1 %45, label %46, label %48

46:                                               ; preds = %44
  %47 = load ptr, ptr @PyExc_IndexError, align 8, !tbaa !3
  tail call void @PyErr_SetString(ptr noundef %47, ptr noundef nonnull @.str.12) #2
  br label %_heapq_heappushpop_impl.exit

48:                                               ; preds = %44
  %49 = load ptr, ptr %23, align 8, !tbaa !23
  %50 = load ptr, ptr %49, align 8, !tbaa !3
  %51 = load i32, ptr %14, align 8, !tbaa !22
  %52 = icmp slt i32 %51, 0
  br i1 %52, label %_Py_NewRef.exit24.i, label %53

53:                                               ; preds = %48
  %54 = add nuw i32 %51, 1
  store i32 %54, ptr %14, align 8, !tbaa !22
  %.val22.pre.i = load ptr, ptr %23, align 8, !tbaa !23
  br label %_Py_NewRef.exit24.i

_Py_NewRef.exit24.i:                              ; preds = %53, %48
  %.val22.i = phi ptr [ %49, %48 ], [ %.val22.pre.i, %53 ]
  store ptr %14, ptr %.val22.i, align 8, !tbaa !3
  %55 = tail call i32 @siftup(ptr noundef nonnull readonly %7, i64 noundef 0)
  %.not.i = icmp eq i32 %55, 0
  br i1 %.not.i, label %_heapq_heappushpop_impl.exit, label %56

56:                                               ; preds = %_Py_NewRef.exit24.i
  %57 = load i32, ptr %50, align 8, !tbaa !22
  %.not.i.i = icmp sgt i32 %57, -1
  br i1 %.not.i.i, label %58, label %_heapq_heappushpop_impl.exit

58:                                               ; preds = %56
  %59 = add nsw i32 %57, -1
  store i32 %59, ptr %50, align 8, !tbaa !22
  %60 = icmp eq i32 %59, 0
  br i1 %60, label %61, label %_heapq_heappushpop_impl.exit

61:                                               ; preds = %58
  tail call void @_Py_Dealloc(ptr noundef nonnull %50) #2
  br label %_heapq_heappushpop_impl.exit

_heapq_heappushpop_impl.exit:                     ; preds = %61, %58, %56, %_Py_NewRef.exit24.i, %46, %42, %39, %Py_DECREF.exit19.i, %20, %17, %4, %11
  %.0 = phi ptr [ null, %11 ], [ null, %4 ], [ null, %46 ], [ null, %Py_DECREF.exit19.i ], [ %50, %_Py_NewRef.exit24.i ], [ %14, %17 ], [ %14, %20 ], [ %14, %39 ], [ %14, %42 ], [ null, %56 ], [ null, %58 ], [ null, %61 ]
  ret ptr %.0
}